target datalayout = "e-m:e-p270:32:32-p271:32:32-p272:64:64-i64:64-i128:128-f80:128-n8:16:32:64-S128"
target triple = "x86_64-pc-linux-gnu"

%struct.malloc_mutex_s = type { %union.anon }
%union.anon = type { %struct.anon }
%struct.anon = type { %struct.mutex_prof_data_t, %struct.atomic_b_t, %union.pthread_mutex_t }
%struct.mutex_prof_data_t = type { %struct.nstime_t, %struct.nstime_t, i64, i64, i32, %struct.atomic_u32_t, i64, ptr, i64 }
%struct.nstime_t = type { i64 }
%struct.atomic_u32_t = type { i32 }
%struct.atomic_b_t = type { i8 }
%union.pthread_mutex_t = type { %struct.__pthread_mutex_s }
%struct.__pthread_mutex_s = type { i32, i32, i32, i32, i32, i16, i16, %struct.__pthread_internal_list }
%struct.__pthread_internal_list = type { ptr, ptr }
%struct.pa_shard_s = type { ptr, %struct.atomic_zu_t, %struct.atomic_b_t, i8, %struct.pac_s, %struct.sec_s, %struct.hpa_shard_s, %struct.edata_cache_s, i32, ptr, ptr, ptr, ptr }
%struct.atomic_zu_t = type { i64 }
%struct.pac_s = type { %struct.pai_s, %struct.ecache_s, %struct.ecache_s, %struct.ecache_s, ptr, ptr, ptr, %struct.exp_grow_s, %struct.malloc_mutex_s, %struct.san_bump_alloc_s, %struct.atomic_zu_t, %struct.decay_s, %struct.decay_s, ptr, ptr, %struct.atomic_zu_t }
%struct.pai_s = type { ptr, ptr, ptr, ptr, ptr, ptr, ptr }
%struct.ecache_s = type { %struct.malloc_mutex_s, %struct.eset_s, %struct.eset_s, i32, i32, i8 }
%struct.eset_s = type { [4 x i64], [200 x %struct.eset_bin_s], [200 x %struct.eset_bin_stats_s], %struct.edata_list_inactive_t, %struct.atomic_zu_t, i32 }
%struct.eset_bin_s = type { %struct.edata_heap_t, %struct.edata_cmp_summary_s }
%struct.edata_heap_t = type { %struct.ph_s }
%struct.ph_s = type { ptr, i64 }
%struct.edata_cmp_summary_s = type { i64, i64 }
%struct.eset_bin_stats_s = type { %struct.atomic_zu_t, %struct.atomic_zu_t }
%struct.edata_list_inactive_t = type { %struct.anon.1 }
%struct.anon.1 = type { ptr }
%struct.exp_grow_s = type { i32, i32 }
%struct.san_bump_alloc_s = type { %struct.malloc_mutex_s, ptr }
%struct.decay_s = type { %struct.malloc_mutex_s, i8, %struct.atomic_zd_t, %struct.nstime_t, %struct.nstime_t, i64, %struct.nstime_t, i64, i64, [200 x i64], i64 }
%struct.atomic_zd_t = type { i64 }
%struct.sec_s = type { %struct.pai_s, ptr, %struct.sec_opts_s, ptr, i32 }
%struct.sec_opts_s = type { i64, i64, i64, i64, i64 }
%struct.hpa_shard_s = type { %struct.pai_s, ptr, %struct.malloc_mutex_s, %struct.malloc_mutex_s, ptr, %struct.edata_cache_fast_s, %struct.psset_s, i64, i32, ptr, %struct.hpa_shard_opts_s, i64, %struct.hpa_shard_nonderived_stats_s, %struct.nstime_t }
%struct.edata_cache_fast_s = type { %struct.edata_list_inactive_t, ptr, i8 }
%struct.psset_s = type { [64 x %struct.hpdata_age_heap_t], [1 x i64], %struct.psset_bin_stats_s, %struct.psset_stats_s, %struct.hpdata_empty_list_t, [128 x %struct.hpdata_purge_list_t], [2 x i64], %struct.hpdata_hugify_list_t }
%struct.hpdata_age_heap_t = type { %struct.ph_s }
%struct.psset_bin_stats_s = type { i64, i64, i64 }
%struct.psset_stats_s = type { [64 x [2 x %struct.psset_bin_stats_s]], [2 x %struct.psset_bin_stats_s], [2 x %struct.psset_bin_stats_s] }
%struct.hpdata_empty_list_t = type { %struct.anon.2 }
%struct.anon.2 = type { ptr }
%struct.hpdata_purge_list_t = type { %struct.anon.3 }
%struct.anon.3 = type { ptr }
%struct.hpdata_hugify_list_t = type { %struct.anon.4 }
%struct.anon.4 = type { ptr }
%struct.hpa_shard_opts_s = type { i64, i64, i32, i8, i64, i64, i8 }
%struct.hpa_shard_nonderived_stats_s = type { i64, i64, i64, i64 }
%struct.edata_cache_s = type { %struct.edata_avail_t, %struct.atomic_zu_t, %struct.malloc_mutex_s, ptr }
%struct.edata_avail_t = type { %struct.ph_s }
%struct.pa_shard_stats_s = type { i64, %struct.pac_stats_s }
%struct.pac_stats_s = type { %struct.pac_decay_stats_s, %struct.pac_decay_stats_s, i64, %struct.atomic_zu_t, %struct.atomic_zu_t }
%struct.pac_decay_stats_s = type { %struct.locked_u64_s, %struct.locked_u64_s, %struct.locked_u64_s }
%struct.locked_u64_s = type { %struct.atomic_u64_t }
%struct.atomic_u64_t = type { i64 }

; Function Attrs: alwaysinline nounwind uwtable
define internal i32 @atomic_enum_to_builtin(i32 noundef %0) #3 {
  %2 = alloca i32, align 4
  %3 = alloca i32, align 4
  store i32 %0, ptr %3, align 4, !tbaa !22
  %4 = load i32, ptr %3, align 4, !tbaa !22
  switch i32 %4, label %10 [
    i32 0, label %5
    i32 1, label %6
    i32 2, label %7
    i32 3, label %8
    i32 4, label %9
  ]

5:                                                ; preds = %1
  store i32 0, ptr %2, align 4
  br label %12

6:                                                ; preds = %1
  store i32 2, ptr %2, align 4
  br label %12

7:                                                ; preds = %1
  store i32 3, ptr %2, align 4
  br label %12

8:                                                ; preds = %1
  store i32 4, ptr %2, align 4
  br label %12

9:                                                ; preds = %1
  store i32 5, ptr %2, align 4
  br label %12

10:                                               ; preds = %1
  br label %11

11:                                               ; preds = %10
  unreachable

12:                                               ; preds = %5, %6, %7, %8, %9
  %13 = load i32, ptr %2, align 4
  ret i32 %13
}

; Function Attrs: alwaysinline nounwind uwtable
define internal void @atomic_store_zu(ptr noundef %0, i64 noundef %1, i32 noundef %2) #3 {
  %4 = alloca ptr, align 8
  %5 = alloca i64, align 8
  %6 = alloca i32, align 4
  store ptr %0, ptr %4, align 8, !tbaa !28
  store i64 %1, ptr %5, align 8, !tbaa !29
  store i32 %2, ptr %6, align 4, !tbaa !22
  %7 = load ptr, ptr %4, align 8, !tbaa !28
  %8 = getelementptr inbounds nuw %struct.atomic_zu_t, ptr %7, i32 0, i32 0
  %9 = load i32, ptr %6, align 4, !tbaa !22
  %10 = call i32 @atomic_enum_to_builtin(i32 noundef %9)
  switch i32 %10, label %11 [
    i32 3, label %13
    i32 5, label %15
  ]

11:                                               ; preds = %3
  %12 = load i64, ptr %5, align 8
  store atomic i64 %12, ptr %8 monotonic, align 8
  br label %17

13:                                               ; preds = %3
  %14 = load i64, ptr %5, align 8
  store atomic i64 %14, ptr %8 release, align 8
  br label %17

15:                                               ; preds = %3
  %16 = load i64, ptr %5, align 8
  store atomic i64 %16, ptr %8 seq_cst, align 8
  br label %17

17:                                               ; preds = %15, %13, %11
  ret void
}

; Function Attrs: alwaysinline nounwind uwtable
define internal void @atomic_store_b(ptr noundef %0, i1 noundef zeroext %1, i32 noundef %2) #3 {
  %4 = alloca ptr, align 8
  %5 = alloca i8, align 1
  %6 = alloca i32, align 4
  store ptr %0, ptr %4, align 8, !tbaa !28
  %7 = zext i1 %1 to i8
  store i8 %7, ptr %5, align 1, !tbaa !10
  store i32 %2, ptr %6, align 4, !tbaa !22
  %8 = load ptr, ptr %4, align 8, !tbaa !28
  %9 = getelementptr inbounds nuw %struct.atomic_b_t, ptr %8, i32 0, i32 0
  %10 = load i32, ptr %6, align 4, !tbaa !22
  %11 = call i32 @atomic_enum_to_builtin(i32 noundef %10)
  switch i32 %11, label %12 [
    i32 3, label %14
    i32 5, label %16
  ]

12:                                               ; preds = %3
  %13 = load i8, ptr %5, align 1
  store atomic i8 %13, ptr %9 monotonic, align 1
  br label %18

14:                                               ; preds = %3
  %15 = load i8, ptr %5, align 1
  store atomic i8 %15, ptr %9 release, align 1
  br label %18

16:                                               ; preds = %3
  %17 = load i8, ptr %5, align 1
  store atomic i8 %17, ptr %9 seq_cst, align 1
  br label %18

18:                                               ; preds = %16, %14, %12
  ret void
}

; Function Attrs: nounwind uwtable
define zeroext i1 @duckdb_je_pa_shard_init(ptr noundef %0, ptr noundef %1, ptr noundef %2, ptr noundef %3, ptr noundef %4, i32 noundef %5, ptr noundef %6, ptr noundef %7, ptr noundef %8, i64 noundef %9, i64 noundef %10, i64 noundef %11) #0 {
  %13 = alloca i1, align 1
  %14 = alloca ptr, align 8
  %15 = alloca ptr, align 8
  %16 = alloca ptr, align 8
  %17 = alloca ptr, align 8
  %18 = alloca ptr, align 8
  %19 = alloca i32, align 4
  %20 = alloca ptr, align 8
  %21 = alloca ptr, align 8
  %22 = alloca ptr, align 8
  %23 = alloca i64, align 8
  %24 = alloca i64, align 8
  %25 = alloca i64, align 8
  store ptr %0, ptr %14, align 8, !tbaa !16
  store ptr %1, ptr %15, align 8, !tbaa !18
  store ptr %2, ptr %16, align 8, !tbaa !3
  store ptr %3, ptr %17, align 8, !tbaa !20
  store ptr %4, ptr %18, align 8, !tbaa !8
  store i32 %5, ptr %19, align 4, !tbaa !22
  store ptr %6, ptr %20, align 8, !tbaa !24
  store ptr %7, ptr %21, align 8, !tbaa !26
  store ptr %8, ptr %22, align 8, !tbaa !28
  store i64 %9, ptr %23, align 8, !tbaa !29
  store i64 %10, ptr %24, align 8, !tbaa !29
  store i64 %11, ptr %25, align 8, !tbaa !29
  br label %26

26:                                               ; preds = %12
  br label %27

27:                                               ; preds = %26
  %28 = load ptr, ptr %15, align 8, !tbaa !18
  %29 = getelementptr inbounds nuw %struct.pa_shard_s, ptr %28, i32 0, i32 7
  %30 = load ptr, ptr %18, align 8, !tbaa !8
  %31 = call zeroext i1 @duckdb_je_edata_cache_init(ptr noundef %29, ptr noundef %30)
  br i1 %31, label %32, label %33

32:                                               ; preds = %27
  store i1 true, ptr %13, align 1
  br label %78

33:                                               ; preds = %27
  %34 = load ptr, ptr %14, align 8, !tbaa !16
  %35 = load ptr, ptr %15, align 8, !tbaa !18
  %36 = getelementptr inbounds nuw %struct.pa_shard_s, ptr %35, i32 0, i32 4
  %37 = load ptr, ptr %18, align 8, !tbaa !8
  %38 = load ptr, ptr %17, align 8, !tbaa !20
  %39 = load ptr, ptr %15, align 8, !tbaa !18
  %40 = getelementptr inbounds nuw %struct.pa_shard_s, ptr %39, i32 0, i32 7
  %41 = load ptr, ptr %22, align 8, !tbaa !28
  %42 = load i64, ptr %23, align 8, !tbaa !29
  %43 = load i64, ptr %24, align 8, !tbaa !29
  %44 = load i64, ptr %25, align 8, !tbaa !29
  %45 = load ptr, ptr %20, align 8, !tbaa !24
  %46 = getelementptr inbounds nuw %struct.pa_shard_stats_s, ptr %45, i32 0, i32 1
  %47 = load ptr, ptr %21, align 8, !tbaa !26
  %48 = call zeroext i1 @duckdb_je_pac_init(ptr noundef %34, ptr noundef %36, ptr noundef %37, ptr noundef %38, ptr noundef %40, ptr noundef %41, i64 noundef %42, i64 noundef %43, i64 noundef %44, ptr noundef %46, ptr noundef %47)
  br i1 %48, label %49, label %50

49:                                               ; preds = %33
  store i1 true, ptr %13, align 1
  br label %78

50:                                               ; preds = %33
  %51 = load i32, ptr %19, align 4, !tbaa !22
  %52 = load ptr, ptr %15, align 8, !tbaa !18
  %53 = getelementptr inbounds nuw %struct.pa_shard_s, ptr %52, i32 0, i32 8
  store i32 %51, ptr %53, align 8, !tbaa !31
  %54 = load ptr, ptr %15, align 8, !tbaa !18
  %55 = getelementptr inbounds nuw %struct.pa_shard_s, ptr %54, i32 0, i32 3
  store i8 0, ptr %55, align 1, !tbaa !66
  %56 = load ptr, ptr %15, align 8, !tbaa !18
  %57 = getelementptr inbounds nuw %struct.pa_shard_s, ptr %56, i32 0, i32 2
  call void @atomic_store_b(ptr noundef %57, i1 noundef zeroext false, i32 noundef 0)
  %58 = load ptr, ptr %15, align 8, !tbaa !18
  %59 = getelementptr inbounds nuw %struct.pa_shard_s, ptr %58, i32 0, i32 1
  call void @atomic_store_zu(ptr noundef %59, i64 noundef 0, i32 noundef 0)
  %60 = load ptr, ptr %21, align 8, !tbaa !26
  %61 = load ptr, ptr %15, align 8, !tbaa !18
  %62 = getelementptr inbounds nuw %struct.pa_shard_s, ptr %61, i32 0, i32 9
  store ptr %60, ptr %62, align 8, !tbaa !67
  %63 = load ptr, ptr %20, align 8, !tbaa !24
  %64 = load ptr, ptr %15, align 8, !tbaa !18
  %65 = getelementptr inbounds nuw %struct.pa_shard_s, ptr %64, i32 0, i32 10
  store ptr %63, ptr %65, align 8, !tbaa !68
  %66 = load ptr, ptr %15, align 8, !tbaa !18
  %67 = getelementptr inbounds nuw %struct.pa_shard_s, ptr %66, i32 0, i32 10
  %68 = load ptr, ptr %67, align 8, !tbaa !68
  call void @llvm.memset.p0.i64(ptr align 8 %68, i8 0, i64 80, i1 false)
  %69 = load ptr, ptr %16, align 8, !tbaa !3
  %70 = load ptr, ptr %15, align 8, !tbaa !18
  %71 = getelementptr inbounds nuw %struct.pa_shard_s, ptr %70, i32 0, i32 0
  store ptr %69, ptr %71, align 8, !tbaa !69
  %72 = load ptr, ptr %17, align 8, !tbaa !20
  %73 = load ptr, ptr %15, align 8, !tbaa !18
  %74 = getelementptr inbounds nuw %struct.pa_shard_s, ptr %73, i32 0, i32 11
  store ptr %72, ptr %74, align 8, !tbaa !70
  %75 = load ptr, ptr %18, align 8, !tbaa !8
  %76 = load ptr, ptr %15, align 8, !tbaa !18
  %77 = getelementptr inbounds nuw %struct.pa_shard_s, ptr %76, i32 0, i32 12
  store ptr %75, ptr %77, align 8, !tbaa !71
  store i1 false, ptr %13, align 1
  br label %78

78:                                               ; preds = %50, %49, %32
  %79 = load i1, ptr %13, align 1
  ret i1 %79
}